target datalayout = "e-m:e-p270:32:32-p271:32:32-p272:64:64-i64:64-i128:128-f80:128-n8:16:32:64-S128"
target triple = "x86_64-pc-linux-gnu"

%struct.UDataInfo = type { i16, i16, i8, i8, i8, i8, [4 x i8], [4 x i8], [4 x i8] }

; Function Attrs: mustprogress nounwind uwtable
define zeroext i16 @udata_getInfoSize_77(ptr noundef %0) #0 {
  %2 = alloca i16, align 2
  %3 = alloca ptr, align 8
  %4 = alloca i16, align 2
  store ptr %0, ptr %3, align 8, !tbaa !3
  %5 = load ptr, ptr %3, align 8, !tbaa !3
  %6 = icmp eq ptr %5, null
  br i1 %6, label %7, label %8

7:                                                ; preds = %1
  store i16 0, ptr %2, align 2
  br label %30

8:                                                ; preds = %1
  %9 = load ptr, ptr %3, align 8, !tbaa !3
  %10 = getelementptr inbounds nuw %struct.UDataInfo, ptr %9, i32 0, i32 2
  %11 = load i8, ptr %10, align 2, !tbaa !14
  %12 = zext i8 %11 to i32
  %13 = icmp eq i32 %12, 0
  br i1 %13, label %14, label %18

14:                                               ; preds = %8
  %15 = load ptr, ptr %3, align 8, !tbaa !3
  %16 = getelementptr inbounds nuw %struct.UDataInfo, ptr %15, i32 0, i32 0
  %17 = load i16, ptr %16, align 2, !tbaa !15
  store i16 %17, ptr %2, align 2
  br label %30

18:                                               ; preds = %8
  call void @llvm.lifetime.start.p0(i64 2, ptr %4) #5
  %19 = load ptr, ptr %3, align 8, !tbaa !3
  %20 = getelementptr inbounds nuw %struct.UDataInfo, ptr %19, i32 0, i32 0
  %21 = load i16, ptr %20, align 2, !tbaa !15
  store i16 %21, ptr %4, align 2, !tbaa !13
  %22 = load i16, ptr %4, align 2, !tbaa !13
  %23 = zext i16 %22 to i32
  %24 = shl i32 %23, 8
  %25 = load i16, ptr %4, align 2, !tbaa !13
  %26 = zext i16 %25 to i32
  %27 = ashr i32 %26, 8
  %28 = or i32 %24, %27
  %29 = trunc i32 %28 to i16
  store i16 %29, ptr %2, align 2
  call void @llvm.lifetime.end.p0(i64 2, ptr %4) #5
  br label %30

30:                                               ; preds = %18, %14, %7
  %31 = load i16, ptr %2, align 2
  ret i16 %31
}