; Function Attrs: mustprogress nofree norecurse nosync nounwind willreturn memory(argmem: read) uwtable
define zeroext i16 @udata_getInfoSize_77(ptr noundef readonly %0) local_unnamed_addr #0 {
  %2 = icmp eq ptr %0, null
  br i1 %2, label %9, label %3

3:                                                ; preds = %1
  %4 = getelementptr inbounds nuw i8, ptr %0, i64 4
  %5 = load i8, ptr %4, align 2, !tbaa !11
  %6 = icmp eq i8 %5, 0
  %7 = load i16, ptr %0, align 2, !tbaa !12
  %8 = tail call i16 @llvm.bswap.i16(i16 %7)
  %spec.select = select i1 %6, i16 %7, i16 %8
  br label %9

9:                                                ; preds = %3, %1
  %.0 = phi i16 [ 0, %1 ], [ %spec.select, %3 ]
  ret i16 %.0
}